Certificate:
    Data:
        Version: 3 (0x2)
        Serial Number:
            84:68:c4:73:39:68:a3:7f
    Signature Algorithm: sha1WithRSAEncryption
        Issuer: C=JP, ST=Gunma, O=Yoshikuni, CN=oreoreCA
        Validity
            Not Before: Dec 26 00:26:38 2014 GMT
            Not After : Dec 25 00:26:38 2017 GMT
        Subject: C=JP, ST=Gunma, O=Yoshikuni, CN=oreoreCA
        Subject Public Key Info:
            Public Key Algorithm: rsaEncryption
                Public-Key: (1024 bit)
                Modulus:
                    00:b2:1d:fd:9b:6e:44:8b:5a:a2:de:5a:3f:e1:7b:
                    bb:73:f5:f4:69:df:b5:61:1f:ff:f8:c8:5a:3f:77:
                    d2:9b:14:32:bd:8b:ad:7d:03:db:39:51:e5:c4:dc:
                    53:2d:e5:01:38:db:4a:27:53:29:4f:7d:c9:22:38:
                    08:83:65:19:5f:96:18:c0:df:15:54:d6:ef:c3:3e:
                    3c:74:b5:0d:4e:87:e1:5c:0a:17:a3:31:a9:63:60:
                    23:95:27:a5:72:b1:d3:99:12:b8:40:18:a8:80:57:
                    09:10:46:f4:11:ef:62:64:fe:69:c6:97:8c:14:f4:
                    99:a0:dc:ae:87:b1:36:c5:0b
                Exponent: 65537 (0x10001)
        X509v3 extensions:
            X509v3 Subject Key Identifier: 
                1A:16:A3:D4:FC:12:AA:37:99:70:13:80:B1:CA:1C:97:41:4E:A1:88
            X509v3 Authority Key Identifier: 
                keyid:1A:16:A3:D4:FC:12:AA:37:99:70:13:80:B1:CA:1C:97:41:4E:A1:88

            X509v3 Basic Constraints: 
                CA:TRUE
    Signature Algorithm: sha1WithRSAEncryption
         55:f0:9c:0d:f5:9a:f7:b1:7d:7c:f7:16:8c:bd:05:ae:a2:98:
         21:8c:ec:08:d4:79:f2:aa:3b:09:a5:59:18:d8:0a:56:39:15:
         13:8e:23:2f:6c:20:13:e0:e3:de:75:5b:7e:5d:cb:0f:93:ca:
         7b:cd:28:24:26:52:71:03:8f:14:97:e0:10:4e:e1:08:4f:40:
         6a:64:9c:73:a2:b9:08:81:5b:21:d5:a1:0d:f3:d0:73:c7:71:
         b3:19:fb:42:82:5d:26:50:45:22:67:d3:23:58:88:01:b7:1f:
         e7:0f:30:dc:8e:75:b6:0e:26:7e:34:d8:b0:3b:0e:60:00:eb:
         6a:a4
-----BEGIN CERTIFICATE-----
MIICVjCCAb+gAwIBAgIJAIRoxHM5aKN/MA0GCSqGSIb3DQEBBQUAMEQxCzAJBgNV
BAYTAkpQMQ4wDAYDVQQIDAVHdW5tYTESMBAGA1UECgwJWW9zaGlrdW5pMREwDwYD
VQQDDAhvcmVvcmVDQTAeFw0xNDEyMjYwMDI2MzhaFw0xNzEyMjUwMDI2MzhaMEQx
CzAJBgNVBAYTAkpQMQ4wDAYDVQQIDAVHdW5tYTESMBAGA1UECgwJWW9zaGlrdW5p
MREwDwYDVQQDDAhvcmVvcmVDQTCBnzANBgkqhkiG9w0BAQEFAAOBjQAwgYkCgYEA
sh39m25Ei1qi3lo/4Xu7c/X0ad+1YR//+MhaP3fSmxQyvYutfQPbOVHlxNxTLeUB
ONtKJ1MpT33JIjgIg2UZX5YYwN8VVNbvwz48dLUNTofhXAoXozGpY2AjlSelcrHT
mRK4QBiogFcJEEb0Ee9iZP5pxpeMFPSZoNyuh7E2xQsCAwEAAaNQME4wHQYDVR0O
BBYEFBoWo9T8Eqo3mXATgLHKHJdBTqGIMB8GA1UdIwQYMBaAFBoWo9T8Eqo3mXAT
gLHKHJdBTqGIMAwGA1UdEwQFMAMBAf8wDQYJKoZIhvcNAQEFBQADgYEAVfCcDfWa
97F9fPcWjL0FrqKYIYzsCNR58qo7CaVZGNgKVjkVE44jL2wgE+Dj3nVbfl3LD5PK
e80oJCZScQOPFJfgEE7hCE9AamScc6K5CIFbIdWhDfPQc8dxsxn7QoJdJlBFImfT
I1iIAbcf5w8w3I51tg4mfjTYsDsOYADraqQ=
-----END CERTIFICATE-----
