Certificate:
    Data:
        Version: 3 (0x2)
        Serial Number:
            bb:e9:ef:33:cc:b8:9e:4b
    Signature Algorithm: sha256WithRSAEncryption
        Issuer: C=JP, ST=Gunma, O=Slozsoft, CN=Curuba OpenVPN
        Validity
            Not Before: Apr 12 02:08:37 2019 GMT
            Not After : Apr 11 02:08:37 2022 GMT
        Subject: C=JP, ST=Gunma, O=Slozsoft, CN=Curuba OpenVPN
        Subject Public Key Info:
            Public Key Algorithm: rsaEncryption
                Public-Key: (2048 bit)
                Modulus:
                    00:c9:6e:3f:ed:2d:6b:0f:53:ed:31:3d:df:a5:4d:
                    32:33:51:cd:13:82:f5:e0:52:2c:e2:be:d4:e6:e5:
                    ef:da:48:7a:e1:fc:b8:7b:6a:8c:55:52:19:9c:d9:
                    6c:ad:b4:09:6a:af:45:cb:84:57:55:38:b5:83:0b:
                    ca:25:4c:9f:33:a0:5b:49:d2:b5:a5:74:68:11:7c:
                    48:7e:fd:64:0a:93:1d:0f:84:87:eb:ba:2c:ae:6e:
                    6f:01:ee:df:1c:f1:1f:26:9f:85:19:da:9f:0f:41:
                    d5:ba:b6:38:43:15:07:ad:75:52:b8:25:26:78:01:
                    a7:43:00:b9:91:50:3a:be:e2:14:45:ec:32:24:08:
                    32:75:af:d6:66:e2:03:17:1f:a8:75:34:b7:58:6e:
                    b4:6a:9c:ca:ea:6e:c7:18:d6:51:e3:a5:b0:62:4b:
                    fe:d4:29:a8:20:e8:ea:9e:4e:10:b2:f2:01:86:f0:
                    c5:24:b1:48:76:77:34:f4:d9:0a:f4:3b:e2:27:57:
                    60:55:b4:3b:41:01:83:df:4a:3d:10:26:26:ba:51:
                    b2:91:1c:ca:b2:31:8b:63:6d:45:67:14:f8:8e:4e:
                    72:4d:30:d7:43:61:be:81:e3:fb:8c:ce:07:05:2f:
                    f0:df:84:92:6b:27:b2:53:77:3a:79:16:c2:2d:70:
                    1a:27
                Exponent: 65537 (0x10001)
        X509v3 extensions:
            X509v3 Subject Key Identifier: 
                FC:05:AE:6E:4C:8B:45:74:56:9F:17:DB:86:D5:C5:86:99:D3:4A:B8
            X509v3 Authority Key Identifier: 
                keyid:FC:05:AE:6E:4C:8B:45:74:56:9F:17:DB:86:D5:C5:86:99:D3:4A:B8

            X509v3 Basic Constraints: 
                CA:TRUE
    Signature Algorithm: sha256WithRSAEncryption
         6b:4b:f8:c0:0e:4a:42:fe:58:a2:34:14:e8:de:7e:5a:b1:58:
         8b:fd:43:70:53:78:98:e2:77:d8:9e:b7:e5:a7:fb:9a:96:66:
         09:f8:64:34:3d:6c:e2:0a:cc:98:e1:99:12:20:9a:8d:b5:4c:
         e9:fb:a3:67:24:99:01:37:c8:a9:fb:c2:0a:d4:53:2e:15:be:
         26:a2:6a:d1:f7:22:c7:12:c5:63:30:37:6e:19:4e:4c:6d:61:
         13:82:89:3d:5a:e7:b3:4f:88:3c:ee:2b:b5:e1:0f:05:dd:7c:
         a2:18:24:70:51:e4:4c:09:b5:27:2e:39:31:94:40:c6:e5:86:
         2c:d8:71:42:f4:31:3d:7a:55:f2:62:5b:b9:49:e6:39:cc:aa:
         d9:e5:d8:a4:16:b0:61:dc:a0:7d:f3:80:f4:15:10:19:3a:33:
         5f:d2:f8:4c:ca:c8:8c:4f:15:83:f5:fd:ed:8b:d8:ef:6d:af:
         00:14:e0:e5:2c:c5:76:d4:3e:28:05:43:db:3a:69:cd:81:b4:
         10:dd:82:88:e9:b7:08:93:eb:78:9c:f6:d0:47:a1:e7:d0:a1:
         e9:b9:96:a9:ac:26:65:20:e3:7e:c7:07:8c:ff:5a:2f:34:a8:
         bc:07:f6:ff:c2:3d:23:3b:51:63:82:40:68:b6:82:bc:97:4b:
         cd:cb:d0:2a
-----BEGIN CERTIFICATE-----
MIIDZTCCAk2gAwIBAgIJALvp7zPMuJ5LMA0GCSqGSIb3DQEBCwUAMEkxCzAJBgNV
BAYTAkpQMQ4wDAYDVQQIDAVHdW5tYTERMA8GA1UECgwIU2xvenNvZnQxFzAVBgNV
BAMMDkN1cnViYSBPcGVuVlBOMB4XDTE5MDQxMjAyMDgzN1oXDTIyMDQxMTAyMDgz
N1owSTELMAkGA1UEBhMCSlAxDjAMBgNVBAgMBUd1bm1hMREwDwYDVQQKDAhTbG96
c29mdDEXMBUGA1UEAwwOQ3VydWJhIE9wZW5WUE4wggEiMA0GCSqGSIb3DQEBAQUA
A4IBDwAwggEKAoIBAQDJbj/tLWsPU+0xPd+lTTIzUc0TgvXgUizivtTm5e/aSHrh
/Lh7aoxVUhmc2WyttAlqr0XLhFdVOLWDC8olTJ8zoFtJ0rWldGgRfEh+/WQKkx0P
hIfruiyubm8B7t8c8R8mn4UZ2p8PQdW6tjhDFQetdVK4JSZ4AadDALmRUDq+4hRF
7DIkCDJ1r9Zm4gMXH6h1NLdYbrRqnMrqbscY1lHjpbBiS/7UKagg6OqeThCy8gGG
8MUksUh2dzT02Qr0O+InV2BVtDtBAYPfSj0QJia6UbKRHMqyMYtjbUVnFPiOTnJN
MNdDYb6B4/uMzgcFL/DfhJJrJ7JTdzp5FsItcBonAgMBAAGjUDBOMB0GA1UdDgQW
BBT8Ba5uTItFdFafF9uG1cWGmdNKuDAfBgNVHSMEGDAWgBT8Ba5uTItFdFafF9uG
1cWGmdNKuDAMBgNVHRMEBTADAQH/MA0GCSqGSIb3DQEBCwUAA4IBAQBrS/jADkpC
/liiNBTo3n5asViL/UNwU3iY4nfYnrflp/ualmYJ+GQ0PWziCsyY4ZkSIJqNtUzp
+6NnJJkBN8ip+8IK1FMuFb4momrR9yLHEsVjMDduGU5MbWETgok9WuezT4g87iu1
4Q8F3XyiGCRwUeRMCbUnLjkxlEDG5YYs2HFC9DE9elXyYlu5SeY5zKrZ5dikFrBh
3KB984D0FRAZOjNf0vhMysiMTxWD9f3ti9jvba8AFODlLMV21D4oBUPbOmnNgbQQ
3YKI6bcIk+t4nPbQR6Hn0KHpuZaprCZlION+xweM/1ovNKi8B/b/wj0jO1FjgkBo
toK8l0vNy9Aq
-----END CERTIFICATE-----
